; Listing generated by Microsoft (R) Optimizing Compiler Version 18.00.30723.0 

	TITLE	c:\Users\ert283\Downloads\CS3843_Project_InitialStudentFiles-Rev1(1)\EncryptData_Initial.cpp
	.686P
	.XMM
	include listing.inc
	.model	flat

INCLUDELIB MSVCRTD
INCLUDELIB OLDNAMES

PUBLIC	?encryptData@@YAHPADH@Z				; encryptData
EXTRN	__RTC_CheckEsp:PROC
EXTRN	__RTC_InitBase:PROC
EXTRN	__RTC_Shutdown:PROC
EXTRN	?gkey@@3PAEA:BYTE				; gkey
EXTRN	?gptrKey@@3PAEA:DWORD				; gptrKey
EXTRN	?gPasswordHash@@3PAEA:BYTE			; gPasswordHash
EXTRN	?gptrPasswordHash@@3PAEA:DWORD			; gptrPasswordHash
EXTRN	?gdebug1@@3EA:BYTE				; gdebug1
EXTRN	?gdebug2@@3EA:BYTE				; gdebug2
;	COMDAT rtc$TMZ
rtc$TMZ	SEGMENT
__RTC_Shutdown.rtc$TMZ DD FLAT:__RTC_Shutdown
rtc$TMZ	ENDS
;	COMDAT rtc$IMZ
rtc$IMZ	SEGMENT
__RTC_InitBase.rtc$IMZ DD FLAT:__RTC_InitBase
rtc$IMZ	ENDS
; Function compile flags: /Odtp /RTCsu /ZI
;	COMDAT ?encryptData@@YAHPADH@Z
_TEXT	SEGMENT
_resulti$ = -8						; size = 4
_data$ = 8						; size = 4
_dataLength$ = 12					; size = 4
?encryptData@@YAHPADH@Z PROC				; encryptData, COMDAT
; File c:\users\ert283\downloads\cs3843_project_initialstudentfiles-rev1(1)\encryptdata_initial.cpp
; Line 11
  00000	55		 push	 ebp
  00001	8b ec		 mov	 ebp, esp
  00003	81 ec cc 00 00
	00		 sub	 esp, 204		; 000000ccH
  00009	53		 push	 ebx
  0000a	56		 push	 esi
  0000b	57		 push	 edi
  0000c	8d bd 34 ff ff
	ff		 lea	 edi, DWORD PTR [ebp-204]
  00012	b9 33 00 00 00	 mov	 ecx, 51			; 00000033H
  00017	b8 cc cc cc cc	 mov	 eax, -858993460		; ccccccccH
  0001c	f3 ab		 rep stosd
; Line 12
  0001e	c7 45 f8 00 00
	00 00		 mov	 DWORD PTR _resulti$[ebp], 0
; Line 14
  00025	c6 05 00 00 00
	00 00		 mov	 BYTE PTR ?gdebug1@@3EA, 0 ; gdebug1
; Line 15
  0002c	c6 05 00 00 00
	00 00		 mov	 BYTE PTR ?gdebug2@@3EA, 0 ; gdebug2
; Line 26
  00033	33 c9		 xor	 ecx, ecx
; Line 27
  00035	8b 5d 0c	 mov	 ebx, DWORD PTR _dataLength$[ebp]
; Line 29
  00038	8d 35 00 00 00
	00		 lea	 esi, OFFSET ?gkey@@3PAEA
; Line 30
  0003e	8b 35 00 00 00
	00		 mov	 esi, DWORD PTR ?gptrKey@@3PAEA ; gptrKey
; Line 32
  00044	8d 35 00 00 00
	00		 lea	 esi, OFFSET ?gPasswordHash@@3PAEA
; Line 33
  0004a	8b 35 00 00 00
	00		 mov	 esi, DWORD PTR ?gptrPasswordHash@@3PAEA ; gptrPasswordHash
; Line 35
  00050	8b 7d 08	 mov	 edi, DWORD PTR _data$[ebp]
$XOR_ONE_LOOP$3:
; Line 38
  00053	8a 04 0f	 mov	 al, BYTE PTR [edi+ecx]
; Line 39
  00056	34 01		 xor	 al, 1
; Line 40
  00058	88 04 0f	 mov	 BYTE PTR [edi+ecx], al
; Line 41
  0005b	41		 inc	 ecx
; Line 42
  0005c	3b cb		 cmp	 ecx, ebx
; Line 43
  0005e	7c f3		 jl	 SHORT $XOR_ONE_LOOP$3
; Line 46
  00060	8b 45 f8	 mov	 eax, DWORD PTR _resulti$[ebp]
; Line 47
  00063	5f		 pop	 edi
  00064	5e		 pop	 esi
  00065	5b		 pop	 ebx
  00066	81 c4 cc 00 00
	00		 add	 esp, 204		; 000000ccH
  0006c	3b ec		 cmp	 ebp, esp
  0006e	e8 00 00 00 00	 call	 __RTC_CheckEsp
  00073	8b e5		 mov	 esp, ebp
  00075	5d		 pop	 ebp
  00076	c3		 ret	 0
?encryptData@@YAHPADH@Z ENDP				; encryptData
_TEXT	ENDS
END
